; Function Attrs: mustprogress uwtable
define void @_ZN6google8protobuf4util18MessageDifferencer14StreamReporterC2EPNS0_2io20ZeroCopyOutputStreamE(ptr nocapture noundef nonnull writeonly align 8 dereferenceable(48) %this, ptr noundef %output) unnamed_addr #3 align 2 personality ptr @__gxx_personality_v0 {
entry:
  store ptr getelementptr inbounds ({ [14 x ptr] }, ptr @_ZTVN6google8protobuf4util18MessageDifferencer14StreamReporterE, i64 0, i32 0, i64 2), ptr %this, align 8
  %call = tail call noalias noundef nonnull dereferenceable(256) ptr @_Znwm(i64 noundef 256) #32
  invoke void @_ZN6google8protobuf2io7PrinterC1EPNS1_20ZeroCopyOutputStreamEcPNS1_19AnnotationCollectorE(ptr noundef nonnull align 8 dereferenceable(256) %call, ptr noundef %output, i8 noundef signext 36, ptr noundef null)
          to label %invoke.cont3 unwind label %lpad2

invoke.cont3:                                     ; preds = %entry
  %printer_ = getelementptr inbounds i8, ptr %this, i64 8
  store ptr %call, ptr %printer_, align 8
  %delete_printer_ = getelementptr inbounds i8, ptr %this, i64 16
  store i8 1, ptr %delete_printer_, align 8
  %report_modified_aggregates_ = getelementptr inbounds i8, ptr %this, i64 17
  store i8 0, ptr %report_modified_aggregates_, align 1
  %message1_ = getelementptr inbounds i8, ptr %this, i64 24
  tail call void @llvm.memset.p0.i64(ptr noundef nonnull align 8 dereferenceable(24) %message1_, i8 0, i64 24, i1 false)
  ret void

lpad2:                                            ; preds = %entry
  %0 = landingpad { ptr, i32 }
          cleanup
  tail call void @_ZdlPv(ptr noundef nonnull %call) #33
  resume { ptr, i32 } %0
}